(dp1
VsuperMover
p2
(dp3
S'knots'
p4
(lp5
F0
aF1
aF2
aF3
aF4
aF5
aF6
aF7
aF8
aF9
aF10
aF11
aF12
aF13
aF14
aF15
aF16
aF17
aF18
aF19
aF20
aF21
aF22
aF23
aF24
asS'spans'
p6
I24
sS'form'
p7
S'open'
p8
sS'degree'
p9
I1
sS'cvs'
p10
(lp11
(F0
F0
F1
tp12
a(F-2
F0
F1
tp13
a(F-2
F0
F2
tp14
a(F-4
F0
F0
tp15
a(F-2
F0
F-2
tp16
a(F-2
F0
F-1
tp17
a(F0
F0
F-1
tp18
a(F0
F0
F-3
tp19
a(F-1
F0
F-3
tp20
a(F1
F0
F-5
tp21
a(F3
F0
F-3
tp22
a(F2
F0
F-3
tp23
a(F2
F0
F-1
tp24
a(F4
F0
F-1
tp25
a(F4
F0
F-2
tp26
a(F6
F0
F0
tp27
a(F4
F0
F2
tp28
a(F4
F0
F1
tp29
a(F2
F0
F1
tp30
a(F2
F0
F3
tp31
a(F3
F0
F3
tp32
a(F1
F0
F5
tp33
a(F-1
F0
F3
tp34
a(F0
F0
F3
tp35
a(F0
F0
F1
tp36
ass.